; Function Attrs: mustprogress nounwind uwtable
define internal noundef i32 @_ZN4llvm10FoldingSetIN12_GLOBAL__N_120FoldingNodeAllocator10NodeHeaderEE15ComputeNodeHashEPKNS_14FoldingSetBaseEPNS5_4NodeERNS_16FoldingSetNodeIDE(ptr readnone captures(none) %0, ptr noundef nonnull %1, ptr noundef nonnull align 8 dereferenceable(144) %2) #0 align 2 {
  tail call fastcc void @_ZN4llvm22DefaultFoldingSetTraitIN12_GLOBAL__N_120FoldingNodeAllocator10NodeHeaderEE7ProfileERS3_RNS_16FoldingSetNodeIDE(ptr noundef nonnull align 8 dereferenceable(8) %1, ptr noundef nonnull align 8 dereferenceable(144) %2)
  %4 = load ptr, ptr %2, align 8
  %5 = tail call noundef i64 @_ZNK4llvm15SmallVectorBaseIjE4sizeEv(ptr noundef nonnull align 8 dereferenceable(144) %2) #20
  %6 = getelementptr inbounds i32, ptr %4, i64 %5
  %7 = tail call i64 @_ZN4llvm7hashing6detail23hash_combine_range_implIKjEENSt9enable_ifIXsr16is_hashable_dataIT_EE5valueENS_9hash_codeEE4typeEPS5_S9_(ptr noundef %4, ptr noundef %6)
  %8 = trunc i64 %7 to i32
  ret i32 %8
}